target datalayout = "e-m:e-p270:32:32-p271:32:32-p272:64:64-i64:64-i128:128-f80:128-n8:16:32:64-S128"
target triple = "x86_64-unknown-linux-gnu"

%class.btVector3 = type { [4 x float] }
%class.btPolyhedralConvexShape = type { %class.btConvexInternalShape, ptr }
%class.btConvexInternalShape = type { %class.btConvexShape, %class.btVector3, %class.btVector3, float, float }
%class.btConvexShape = type { %class.btCollisionShape }
%class.btCollisionShape = type { ptr, i32, ptr, i32, i32 }
%class.btPolyhedralConvexAabbCachingShape = type <{ %class.btPolyhedralConvexShape, %class.btVector3, %class.btVector3, i8, [7 x i8] }>

@_ZZN34btPolyhedralConvexAabbCachingShape15recalcLocalAabbEvE11_directions = internal global [6 x %class.btVector3] zeroinitializer, align 16
@_ZGVZN34btPolyhedralConvexAabbCachingShape15recalcLocalAabbEvE11_directions = internal global i64 0, align 8

; Function Attrs: mustprogress nounwind uwtable
define linkonce_odr dso_local noundef ptr @_ZN9btVector3cvPfEv(ptr noundef nonnull align 4 dereferenceable(16) %this) #1 comdat align 2 {
entry:
  %this.addr = alloca ptr, align 8
  store ptr %this, ptr %this.addr, align 8
  %this1 = load ptr, ptr %this.addr, align 8
  %m_floats = getelementptr inbounds %class.btVector3, ptr %this1, i32 0, i32 0
  %arrayidx = getelementptr inbounds [4 x float], ptr %m_floats, i64 0, i64 0
  ret ptr %arrayidx
}

; Function Attrs: mustprogress nounwind uwtable
define linkonce_odr dso_local void @_ZN9btVector3C2ERKfS1_S1_(ptr noundef nonnull align 4 dereferenceable(16) %this, ptr noundef nonnull align 4 dereferenceable(4) %_x, ptr noundef nonnull align 4 dereferenceable(4) %_y, ptr noundef nonnull align 4 dereferenceable(4) %_z) unnamed_addr #1 comdat align 2 {
entry:
  %this.addr = alloca ptr, align 8
  %_x.addr = alloca ptr, align 8
  %_y.addr = alloca ptr, align 8
  %_z.addr = alloca ptr, align 8
  store ptr %this, ptr %this.addr, align 8
  store ptr %_x, ptr %_x.addr, align 8
  store ptr %_y, ptr %_y.addr, align 8
  store ptr %_z, ptr %_z.addr, align 8
  %this1 = load ptr, ptr %this.addr, align 8
  %0 = load ptr, ptr %_x.addr, align 8
  %1 = load float, ptr %0, align 4
  %m_floats = getelementptr inbounds %class.btVector3, ptr %this1, i32 0, i32 0
  %arrayidx = getelementptr inbounds [4 x float], ptr %m_floats, i64 0, i64 0
  store float %1, ptr %arrayidx, align 4
  %2 = load ptr, ptr %_y.addr, align 8
  %3 = load float, ptr %2, align 4
  %m_floats2 = getelementptr inbounds %class.btVector3, ptr %this1, i32 0, i32 0
  %arrayidx3 = getelementptr inbounds [4 x float], ptr %m_floats2, i64 0, i64 1
  store float %3, ptr %arrayidx3, align 4
  %4 = load ptr, ptr %_z.addr, align 8
  %5 = load float, ptr %4, align 4
  %m_floats4 = getelementptr inbounds %class.btVector3, ptr %this1, i32 0, i32 0
  %arrayidx5 = getelementptr inbounds [4 x float], ptr %m_floats4, i64 0, i64 2
  store float %5, ptr %arrayidx5, align 4
  %m_floats6 = getelementptr inbounds %class.btVector3, ptr %this1, i32 0, i32 0
  %arrayidx7 = getelementptr inbounds [4 x float], ptr %m_floats6, i64 0, i64 3
  store float 0.000000e+00, ptr %arrayidx7, align 4
  ret void
}

; Function Attrs: mustprogress uwtable
define dso_local void @_ZN34btPolyhedralConvexAabbCachingShape15recalcLocalAabbEv(ptr noundef nonnull align 8 dereferenceable(113) %this) #2 align 2 personality ptr @__gxx_personality_v0 {
entry:
  %this.addr = alloca ptr, align 8
  %ref.tmp = alloca float, align 4
  %ref.tmp2 = alloca float, align 4
  %ref.tmp3 = alloca float, align 4
  %exn.slot = alloca ptr, align 8
  %ehselector.slot = alloca i32, align 4
  %ref.tmp4 = alloca float, align 4
  %ref.tmp5 = alloca float, align 4
  %ref.tmp6 = alloca float, align 4
  %ref.tmp8 = alloca float, align 4
  %ref.tmp9 = alloca float, align 4
  %ref.tmp10 = alloca float, align 4
  %ref.tmp12 = alloca float, align 4
  %ref.tmp13 = alloca float, align 4
  %ref.tmp14 = alloca float, align 4
  %ref.tmp16 = alloca float, align 4
  %ref.tmp17 = alloca float, align 4
  %ref.tmp18 = alloca float, align 4
  %ref.tmp20 = alloca float, align 4
  %ref.tmp21 = alloca float, align 4
  %ref.tmp22 = alloca float, align 4
  %_supporting = alloca [6 x %class.btVector3], align 16
  %ref.tmp24 = alloca float, align 4
  %ref.tmp25 = alloca float, align 4
  %ref.tmp26 = alloca float, align 4
  %ref.tmp27 = alloca float, align 4
  %ref.tmp28 = alloca float, align 4
  %ref.tmp29 = alloca float, align 4
  %ref.tmp31 = alloca float, align 4
  %ref.tmp32 = alloca float, align 4
  %ref.tmp33 = alloca float, align 4
  %ref.tmp35 = alloca float, align 4
  %ref.tmp36 = alloca float, align 4
  %ref.tmp37 = alloca float, align 4
  %ref.tmp39 = alloca float, align 4
  %ref.tmp40 = alloca float, align 4
  %ref.tmp41 = alloca float, align 4
  %ref.tmp43 = alloca float, align 4
  %ref.tmp44 = alloca float, align 4
  %ref.tmp45 = alloca float, align 4
  %i = alloca i32, align 4
  store ptr %this, ptr %this.addr, align 8
  %this1 = load ptr, ptr %this.addr, align 8
  %m_isLocalAabbValid = getelementptr inbounds %class.btPolyhedralConvexAabbCachingShape, ptr %this1, i32 0, i32 3
  store i8 1, ptr %m_isLocalAabbValid, align 8
  %0 = load atomic i8, ptr @_ZGVZN34btPolyhedralConvexAabbCachingShape15recalcLocalAabbEvE11_directions acquire, align 8
  %guard.uninitialized = icmp eq i8 %0, 0
  br i1 %guard.uninitialized, label %init.check, label %init.end, !prof !21

init.check:                                       ; preds = %entry
  %1 = call i32 @__cxa_guard_acquire(ptr @_ZGVZN34btPolyhedralConvexAabbCachingShape15recalcLocalAabbEvE11_directions) #8
  %tobool = icmp ne i32 %1, 0
  br i1 %tobool, label %init, label %init.end

init:                                             ; preds = %init.check
  store float 1.000000e+00, ptr %ref.tmp, align 4
  store float 0.000000e+00, ptr %ref.tmp2, align 4
  store float 0.000000e+00, ptr %ref.tmp3, align 4
  invoke void @_ZN9btVector3C2ERKfS1_S1_(ptr noundef nonnull align 4 dereferenceable(16) @_ZZN34btPolyhedralConvexAabbCachingShape15recalcLocalAabbEvE11_directions, ptr noundef nonnull align 4 dereferenceable(4) %ref.tmp, ptr noundef nonnull align 4 dereferenceable(4) %ref.tmp2, ptr noundef nonnull align 4 dereferenceable(4) %ref.tmp3)
          to label %invoke.cont unwind label %lpad

invoke.cont:                                      ; preds = %init
  store float 0.000000e+00, ptr %ref.tmp4, align 4
  store float 1.000000e+00, ptr %ref.tmp5, align 4
  store float 0.000000e+00, ptr %ref.tmp6, align 4
  invoke void @_ZN9btVector3C2ERKfS1_S1_(ptr noundef nonnull align 4 dereferenceable(16) getelementptr inbounds (%class.btVector3, ptr @_ZZN34btPolyhedralConvexAabbCachingShape15recalcLocalAabbEvE11_directions, i64 1), ptr noundef nonnull align 4 dereferenceable(4) %ref.tmp4, ptr noundef nonnull align 4 dereferenceable(4) %ref.tmp5, ptr noundef nonnull align 4 dereferenceable(4) %ref.tmp6)
          to label %invoke.cont7 unwind label %lpad

invoke.cont7:                                     ; preds = %invoke.cont
  store float 0.000000e+00, ptr %ref.tmp8, align 4
  store float 0.000000e+00, ptr %ref.tmp9, align 4
  store float 1.000000e+00, ptr %ref.tmp10, align 4
  invoke void @_ZN9btVector3C2ERKfS1_S1_(ptr noundef nonnull align 4 dereferenceable(16) getelementptr inbounds (%class.btVector3, ptr @_ZZN34btPolyhedralConvexAabbCachingShape15recalcLocalAabbEvE11_directions, i64 2), ptr noundef nonnull align 4 dereferenceable(4) %ref.tmp8, ptr noundef nonnull align 4 dereferenceable(4) %ref.tmp9, ptr noundef nonnull align 4 dereferenceable(4) %ref.tmp10)
          to label %invoke.cont11 unwind label %lpad

invoke.cont11:                                    ; preds = %invoke.cont7
  store float -1.000000e+00, ptr %ref.tmp12, align 4
  store float 0.000000e+00, ptr %ref.tmp13, align 4
  store float 0.000000e+00, ptr %ref.tmp14, align 4
  invoke void @_ZN9btVector3C2ERKfS1_S1_(ptr noundef nonnull align 4 dereferenceable(16) getelementptr inbounds (%class.btVector3, ptr @_ZZN34btPolyhedralConvexAabbCachingShape15recalcLocalAabbEvE11_directions, i64 3), ptr noundef nonnull align 4 dereferenceable(4) %ref.tmp12, ptr noundef nonnull align 4 dereferenceable(4) %ref.tmp13, ptr noundef nonnull align 4 dereferenceable(4) %ref.tmp14)
          to label %invoke.cont15 unwind label %lpad

invoke.cont15:                                    ; preds = %invoke.cont11
  store float 0.000000e+00, ptr %ref.tmp16, align 4
  store float -1.000000e+00, ptr %ref.tmp17, align 4
  store float 0.000000e+00, ptr %ref.tmp18, align 4
  invoke void @_ZN9btVector3C2ERKfS1_S1_(ptr noundef nonnull align 4 dereferenceable(16) getelementptr inbounds (%class.btVector3, ptr @_ZZN34btPolyhedralConvexAabbCachingShape15recalcLocalAabbEvE11_directions, i64 4), ptr noundef nonnull align 4 dereferenceable(4) %ref.tmp16, ptr noundef nonnull align 4 dereferenceable(4) %ref.tmp17, ptr noundef nonnull align 4 dereferenceable(4) %ref.tmp18)
          to label %invoke.cont19 unwind label %lpad

invoke.cont19:                                    ; preds = %invoke.cont15
  store float 0.000000e+00, ptr %ref.tmp20, align 4
  store float 0.000000e+00, ptr %ref.tmp21, align 4
  store float -1.000000e+00, ptr %ref.tmp22, align 4
  invoke void @_ZN9btVector3C2ERKfS1_S1_(ptr noundef nonnull align 4 dereferenceable(16) getelementptr inbounds (%class.btVector3, ptr @_ZZN34btPolyhedralConvexAabbCachingShape15recalcLocalAabbEvE11_directions, i64 5), ptr noundef nonnull align 4 dereferenceable(4) %ref.tmp20, ptr noundef nonnull align 4 dereferenceable(4) %ref.tmp21, ptr noundef nonnull align 4 dereferenceable(4) %ref.tmp22)
          to label %invoke.cont23 unwind label %lpad

invoke.cont23:                                    ; preds = %invoke.cont19
  call void @__cxa_guard_release(ptr @_ZGVZN34btPolyhedralConvexAabbCachingShape15recalcLocalAabbEvE11_directions) #8
  br label %init.end

init.end:                                         ; preds = %invoke.cont23, %init.check, %entry
  %arrayinit.begin = getelementptr inbounds [6 x %class.btVector3], ptr %_supporting, i64 0, i64 0
  store float 0.000000e+00, ptr %ref.tmp24, align 4
  store float 0.000000e+00, ptr %ref.tmp25, align 4
  store float 0.000000e+00, ptr %ref.tmp26, align 4
  call void @_ZN9btVector3C2ERKfS1_S1_(ptr noundef nonnull align 4 dereferenceable(16) %arrayinit.begin, ptr noundef nonnull align 4 dereferenceable(4) %ref.tmp24, ptr noundef nonnull align 4 dereferenceable(4) %ref.tmp25, ptr noundef nonnull align 4 dereferenceable(4) %ref.tmp26)
  %arrayinit.element = getelementptr inbounds %class.btVector3, ptr %arrayinit.begin, i64 1
  store float 0.000000e+00, ptr %ref.tmp27, align 4
  store float 0.000000e+00, ptr %ref.tmp28, align 4
  store float 0.000000e+00, ptr %ref.tmp29, align 4
  call void @_ZN9btVector3C2ERKfS1_S1_(ptr noundef nonnull align 4 dereferenceable(16) %arrayinit.element, ptr noundef nonnull align 4 dereferenceable(4) %ref.tmp27, ptr noundef nonnull align 4 dereferenceable(4) %ref.tmp28, ptr noundef nonnull align 4 dereferenceable(4) %ref.tmp29)
  %arrayinit.element30 = getelementptr inbounds %class.btVector3, ptr %arrayinit.element, i64 1
  store float 0.000000e+00, ptr %ref.tmp31, align 4
  store float 0.000000e+00, ptr %ref.tmp32, align 4
  store float 0.000000e+00, ptr %ref.tmp33, align 4
  call void @_ZN9btVector3C2ERKfS1_S1_(ptr noundef nonnull align 4 dereferenceable(16) %arrayinit.element30, ptr noundef nonnull align 4 dereferenceable(4) %ref.tmp31, ptr noundef nonnull align 4 dereferenceable(4) %ref.tmp32, ptr noundef nonnull align 4 dereferenceable(4) %ref.tmp33)
  %arrayinit.element34 = getelementptr inbounds %class.btVector3, ptr %arrayinit.element30, i64 1
  store float 0.000000e+00, ptr %ref.tmp35, align 4
  store float 0.000000e+00, ptr %ref.tmp36, align 4
  store float 0.000000e+00, ptr %ref.tmp37, align 4
  call void @_ZN9btVector3C2ERKfS1_S1_(ptr noundef nonnull align 4 dereferenceable(16) %arrayinit.element34, ptr noundef nonnull align 4 dereferenceable(4) %ref.tmp35, ptr noundef nonnull align 4 dereferenceable(4) %ref.tmp36, ptr noundef nonnull align 4 dereferenceable(4) %ref.tmp37)
  %arrayinit.element38 = getelementptr inbounds %class.btVector3, ptr %arrayinit.element34, i64 1
  store float 0.000000e+00, ptr %ref.tmp39, align 4
  store float 0.000000e+00, ptr %ref.tmp40, align 4
  store float 0.000000e+00, ptr %ref.tmp41, align 4
  call void @_ZN9btVector3C2ERKfS1_S1_(ptr noundef nonnull align 4 dereferenceable(16) %arrayinit.element38, ptr noundef nonnull align 4 dereferenceable(4) %ref.tmp39, ptr noundef nonnull align 4 dereferenceable(4) %ref.tmp40, ptr noundef nonnull align 4 dereferenceable(4) %ref.tmp41)
  %arrayinit.element42 = getelementptr inbounds %class.btVector3, ptr %arrayinit.element38, i64 1
  store float 0.000000e+00, ptr %ref.tmp43, align 4
  store float 0.000000e+00, ptr %ref.tmp44, align 4
  store float 0.000000e+00, ptr %ref.tmp45, align 4
  call void @_ZN9btVector3C2ERKfS1_S1_(ptr noundef nonnull align 4 dereferenceable(16) %arrayinit.element42, ptr noundef nonnull align 4 dereferenceable(4) %ref.tmp43, ptr noundef nonnull align 4 dereferenceable(4) %ref.tmp44, ptr noundef nonnull align 4 dereferenceable(4) %ref.tmp45)
  %arraydecay = getelementptr inbounds [6 x %class.btVector3], ptr %_supporting, i64 0, i64 0
  %vtable = load ptr, ptr %this1, align 8
  %vfn = getelementptr inbounds ptr, ptr %vtable, i64 19
  %2 = load ptr, ptr %vfn, align 8
  call void %2(ptr noundef nonnull align 8 dereferenceable(80) %this1, ptr noundef @_ZZN34btPolyhedralConvexAabbCachingShape15recalcLocalAabbEvE11_directions, ptr noundef %arraydecay, i32 noundef 6)
  store i32 0, ptr %i, align 4
  br label %for.cond

for.cond:                                         ; preds = %for.inc, %init.end
  %3 = load i32, ptr %i, align 4
  %cmp = icmp slt i32 %3, 3
  br i1 %cmp, label %for.body, label %for.end

for.body:                                         ; preds = %for.cond
  %4 = load i32, ptr %i, align 4
  %idxprom = sext i32 %4 to i64
  %arrayidx = getelementptr inbounds [6 x %class.btVector3], ptr %_supporting, i64 0, i64 %idxprom
  %call = call noundef ptr @_ZN9btVector3cvPfEv(ptr noundef nonnull align 4 dereferenceable(16) %arrayidx)
  %5 = load i32, ptr %i, align 4
  %idxprom46 = sext i32 %5 to i64
  %arrayidx47 = getelementptr inbounds float, ptr %call, i64 %idxprom46
  %6 = load float, ptr %arrayidx47, align 4
  %m_collisionMargin = getelementptr inbounds %class.btConvexInternalShape, ptr %this1, i32 0, i32 3
  %7 = load float, ptr %m_collisionMargin, align 8
  %add = fadd float %6, %7
  %m_localAabbMax = getelementptr inbounds %class.btPolyhedralConvexAabbCachingShape, ptr %this1, i32 0, i32 2
  %call48 = call noundef ptr @_ZN9btVector3cvPfEv(ptr noundef nonnull align 4 dereferenceable(16) %m_localAabbMax)
  %8 = load i32, ptr %i, align 4
  %idxprom49 = sext i32 %8 to i64
  %arrayidx50 = getelementptr inbounds float, ptr %call48, i64 %idxprom49
  store float %add, ptr %arrayidx50, align 4
  %9 = load i32, ptr %i, align 4
  %add51 = add nsw i32 %9, 3
  %idxprom52 = sext i32 %add51 to i64
  %arrayidx53 = getelementptr inbounds [6 x %class.btVector3], ptr %_supporting, i64 0, i64 %idxprom52
  %call54 = call noundef ptr @_ZN9btVector3cvPfEv(ptr noundef nonnull align 4 dereferenceable(16) %arrayidx53)
  %10 = load i32, ptr %i, align 4
  %idxprom55 = sext i32 %10 to i64
  %arrayidx56 = getelementptr inbounds float, ptr %call54, i64 %idxprom55
  %11 = load float, ptr %arrayidx56, align 4
  %m_collisionMargin57 = getelementptr inbounds %class.btConvexInternalShape, ptr %this1, i32 0, i32 3
  %12 = load float, ptr %m_collisionMargin57, align 8
  %sub = fsub float %11, %12
  %m_localAabbMin = getelementptr inbounds %class.btPolyhedralConvexAabbCachingShape, ptr %this1, i32 0, i32 1
  %call58 = call noundef ptr @_ZN9btVector3cvPfEv(ptr noundef nonnull align 4 dereferenceable(16) %m_localAabbMin)
  %13 = load i32, ptr %i, align 4
  %idxprom59 = sext i32 %13 to i64
  %arrayidx60 = getelementptr inbounds float, ptr %call58, i64 %idxprom59
  store float %sub, ptr %arrayidx60, align 4
  br label %for.inc

for.inc:                                          ; preds = %for.body
  %14 = load i32, ptr %i, align 4
  %inc = add nsw i32 %14, 1
  store i32 %inc, ptr %i, align 4
  br label %for.cond, !llvm.loop !22

lpad:                                             ; preds = %invoke.cont19, %invoke.cont15, %invoke.cont11, %invoke.cont7, %invoke.cont, %init
  %15 = landingpad { ptr, i32 }
          cleanup
  %16 = extractvalue { ptr, i32 } %15, 0
  store ptr %16, ptr %exn.slot, align 8
  %17 = extractvalue { ptr, i32 } %15, 1
  store i32 %17, ptr %ehselector.slot, align 4
  call void @__cxa_guard_abort(ptr @_ZGVZN34btPolyhedralConvexAabbCachingShape15recalcLocalAabbEvE11_directions) #8
  br label %eh.resume

for.end:                                          ; preds = %for.cond
  ret void

eh.resume:                                        ; preds = %lpad
  %exn = load ptr, ptr %exn.slot, align 8
  %sel = load i32, ptr %ehselector.slot, align 4
  %lpad.val = insertvalue { ptr, i32 } poison, ptr %exn, 0
  %lpad.val61 = insertvalue { ptr, i32 } %lpad.val, i32 %sel, 1
  resume { ptr, i32 } %lpad.val61
}