; Function Attrs: mustprogress uwtable
define dso_local void @_ZN34btPolyhedralConvexAabbCachingShape15recalcLocalAabbEv(ptr noundef nonnull align 8 dereferenceable(113) %this) local_unnamed_addr #0 align 2 personality ptr @__gxx_personality_v0 {
entry:
  %_supporting = alloca [6 x %class.btVector3], align 16
  %m_isLocalAabbValid = getelementptr inbounds i8, ptr %this, i64 112
  store i8 1, ptr %m_isLocalAabbValid, align 8
  %0 = load atomic i8, ptr @_ZGVZN34btPolyhedralConvexAabbCachingShape15recalcLocalAabbEvE11_directions acquire, align 8
  %guard.uninitialized = icmp eq i8 %0, 0
  br i1 %guard.uninitialized, label %init.check, label %init.end, !prof !22

init.check:                                       ; preds = %entry
  %1 = tail call i32 @__cxa_guard_acquire(ptr nonnull @_ZGVZN34btPolyhedralConvexAabbCachingShape15recalcLocalAabbEvE11_directions) #14
  %tobool.not = icmp eq i32 %1, 0
  br i1 %tobool.not, label %init.end, label %init

init:                                             ; preds = %init.check
  store float 1.000000e+00, ptr @_ZZN34btPolyhedralConvexAabbCachingShape15recalcLocalAabbEvE11_directions, align 16
  tail call void @llvm.memset.p0.i64(ptr noundef nonnull align 4 dereferenceable(16) getelementptr inbounds ([6 x %class.btVector3], ptr @_ZZN34btPolyhedralConvexAabbCachingShape15recalcLocalAabbEvE11_directions, i64 0, i64 0, i32 0, i64 1), i8 0, i64 16, i1 false)
  store float 1.000000e+00, ptr getelementptr inbounds ([6 x %class.btVector3], ptr @_ZZN34btPolyhedralConvexAabbCachingShape15recalcLocalAabbEvE11_directions, i64 0, i64 1, i32 0, i64 1), align 4
  tail call void @llvm.memset.p0.i64(ptr noundef nonnull align 8 dereferenceable(16) getelementptr inbounds ([6 x %class.btVector3], ptr @_ZZN34btPolyhedralConvexAabbCachingShape15recalcLocalAabbEvE11_directions, i64 0, i64 1, i32 0, i64 2), i8 0, i64 16, i1 false)
  store <2 x float> <float 1.000000e+00, float 0.000000e+00>, ptr getelementptr inbounds ([6 x %class.btVector3], ptr @_ZZN34btPolyhedralConvexAabbCachingShape15recalcLocalAabbEvE11_directions, i64 0, i64 2, i32 0, i64 2), align 8
  store float -1.000000e+00, ptr getelementptr inbounds ([6 x %class.btVector3], ptr @_ZZN34btPolyhedralConvexAabbCachingShape15recalcLocalAabbEvE11_directions, i64 0, i64 3), align 16
  tail call void @llvm.memset.p0.i64(ptr noundef nonnull align 4 dereferenceable(16) getelementptr inbounds ([6 x %class.btVector3], ptr @_ZZN34btPolyhedralConvexAabbCachingShape15recalcLocalAabbEvE11_directions, i64 0, i64 3, i32 0, i64 1), i8 0, i64 16, i1 false)
  store float -1.000000e+00, ptr getelementptr inbounds ([6 x %class.btVector3], ptr @_ZZN34btPolyhedralConvexAabbCachingShape15recalcLocalAabbEvE11_directions, i64 0, i64 4, i32 0, i64 1), align 4
  tail call void @llvm.memset.p0.i64(ptr noundef nonnull align 8 dereferenceable(16) getelementptr inbounds ([6 x %class.btVector3], ptr @_ZZN34btPolyhedralConvexAabbCachingShape15recalcLocalAabbEvE11_directions, i64 0, i64 4, i32 0, i64 2), i8 0, i64 16, i1 false)
  store <2 x float> <float -1.000000e+00, float 0.000000e+00>, ptr getelementptr inbounds ([6 x %class.btVector3], ptr @_ZZN34btPolyhedralConvexAabbCachingShape15recalcLocalAabbEvE11_directions, i64 0, i64 5, i32 0, i64 2), align 8
  tail call void @__cxa_guard_release(ptr nonnull @_ZGVZN34btPolyhedralConvexAabbCachingShape15recalcLocalAabbEvE11_directions) #14
  br label %init.end

init.end:                                         ; preds = %init, %init.check, %entry
  call void @llvm.memset.p0.i64(ptr noundef nonnull align 16 dereferenceable(96) %_supporting, i8 0, i64 96, i1 false)
  %vtable = load ptr, ptr %this, align 8
  %vfn = getelementptr inbounds i8, ptr %vtable, i64 152
  %2 = load ptr, ptr %vfn, align 8
  call void %2(ptr noundef nonnull align 8 dereferenceable(80) %this, ptr noundef nonnull @_ZZN34btPolyhedralConvexAabbCachingShape15recalcLocalAabbEvE11_directions, ptr noundef nonnull %_supporting, i32 noundef 6)
  %m_collisionMargin = getelementptr inbounds i8, ptr %this, i64 64
  %3 = load float, ptr %m_collisionMargin, align 8
  %m_localAabbMax = getelementptr inbounds i8, ptr %this, i64 96
  %m_localAabbMin = getelementptr inbounds i8, ptr %this, i64 80
  br label %for.body

for.body:                                         ; preds = %init.end, %for.body
  %indvars.iv = phi i64 [ 0, %init.end ], [ %indvars.iv.next, %for.body ]
  %arrayidx = getelementptr inbounds [6 x %class.btVector3], ptr %_supporting, i64 0, i64 %indvars.iv
  %arrayidx47 = getelementptr inbounds float, ptr %arrayidx, i64 %indvars.iv
  %4 = load float, ptr %arrayidx47, align 4
  %add = fadd float %4, %3
  %arrayidx50 = getelementptr inbounds float, ptr %m_localAabbMax, i64 %indvars.iv
  store float %add, ptr %arrayidx50, align 4
  %5 = add nuw nsw i64 %indvars.iv, 3
  %arrayidx53 = getelementptr inbounds [6 x %class.btVector3], ptr %_supporting, i64 0, i64 %5
  %arrayidx56 = getelementptr inbounds float, ptr %arrayidx53, i64 %indvars.iv
  %6 = load float, ptr %arrayidx56, align 4
  %sub = fsub float %6, %3
  %arrayidx60 = getelementptr inbounds float, ptr %m_localAabbMin, i64 %indvars.iv
  store float %sub, ptr %arrayidx60, align 4
  %indvars.iv.next = add nuw nsw i64 %indvars.iv, 1
  %exitcond.not = icmp eq i64 %indvars.iv.next, 3
  br i1 %exitcond.not, label %for.end, label %for.body, !llvm.loop !23

for.end:                                          ; preds = %for.body
  ret void
}